; Function Attrs: nounwind uwtable
define hidden range(i32 0, 23) i32 @mi_posix_memalign(ptr noundef writeonly %0, i64 noundef %1, i64 noundef %2) local_unnamed_addr #0 {
  %4 = icmp ne ptr %0, null
  %5 = and i64 %1, 7
  %.not = icmp eq i64 %5, 0
  %or.cond13.not18.not22 = and i1 %4, %.not
  %6 = icmp ne i64 %1, 0
  %or.cond14.not20 = and i1 %6, %or.cond13.not18.not22
  %7 = tail call range(i64 1, 65) i64 @llvm.ctpop.i64(i64 range(i64 1, 0) %1)
  %8 = icmp samesign ult i64 %7, 2
  %or.cond16 = select i1 %or.cond14.not20, i1 %8, i1 false
  br i1 %or.cond16, label %9, label %14

9:                                                ; preds = %3
  %10 = tail call noalias ptr @mi_malloc_aligned(i64 noundef %2, i64 noundef %1) #7
  %11 = icmp eq ptr %10, null
  %12 = icmp ne i64 %2, 0
  %or.cond = and i1 %12, %11
  br i1 %or.cond, label %14, label %13

13:                                               ; preds = %9
  store ptr %10, ptr %0, align 8, !tbaa !3
  br label %14

14:                                               ; preds = %13, %9, %3
  %.0 = phi i32 [ 22, %3 ], [ 0, %13 ], [ 12, %9 ]
  ret i32 %.0
}